; Function Attrs: mustprogress nounwind uwtable
define hidden void @ncnn_modelbin_destroy(ptr nocapture noundef %0) local_unnamed_addr #5 {
  %2 = load ptr, ptr %0, align 8
  %3 = icmp eq ptr %2, null
  br i1 %3, label %8, label %4

4:                                                ; preds = %1
  %5 = load ptr, ptr %2, align 8
  %6 = getelementptr inbounds i8, ptr %5, i64 8
  %7 = load ptr, ptr %6, align 8
  tail call void %7(ptr noundef nonnull align 8 dereferenceable(8) %2) #26
  br label %8

8:                                                ; preds = %4, %1
  tail call void @free(ptr noundef nonnull %0) #26
  ret void
}